target datalayout = "e-m:e-p270:32:32-p271:32:32-p272:64:64-i64:64-i128:128-f80:128-n8:16:32:64-S128"
target triple = "x86_64-pc-linux-gnu"

%"struct.toml::v3::source_position" = type { i32, i32 }
%"struct.toml::v3::source_region" = type { %"struct.toml::v3::source_position", %"struct.toml::v3::source_position", %"class.std::shared_ptr" }
%"class.std::shared_ptr" = type { %"class.std::__shared_ptr" }
%"class.std::__shared_ptr" = type { ptr, %"class.std::__shared_count" }
%"class.std::__shared_count" = type { ptr }
%"class.toml::v3::node" = type { ptr, %"struct.toml::v3::source_region" }
%"class.toml::v3::table" = type <{ %"class.toml::v3::node", %"class.std::map", i8, [7 x i8] }>
%"class.std::map" = type { %"class.std::_Rb_tree" }
%"class.std::_Rb_tree" = type { %"struct.std::_Rb_tree<toml::v3::key, std::pair<const toml::v3::key, std::unique_ptr<toml::v3::node>>, std::_Select1st<std::pair<const toml::v3::key, std::unique_ptr<toml::v3::node>>>, std::less<void>>::_Rb_tree_impl" }
%"struct.std::_Rb_tree<toml::v3::key, std::pair<const toml::v3::key, std::unique_ptr<toml::v3::node>>, std::_Select1st<std::pair<const toml::v3::key, std::unique_ptr<toml::v3::node>>>, std::less<void>>::_Rb_tree_impl" = type { [8 x i8], %"struct.std::_Rb_tree_header" }
%"struct.std::_Rb_tree_header" = type { %"struct.std::_Rb_tree_node_base", i64 }
%"struct.std::_Rb_tree_node_base" = type { i32, ptr, ptr, ptr }
%"struct.std::_Rb_tree_iterator" = type { ptr }
%"struct.std::_Rb_tree_const_iterator" = type { ptr }

; Function Attrs: mustprogress nounwind uwtable
define linkonce_odr void @_ZNSt17_Rb_tree_iteratorISt4pairIKN4toml2v33keyESt10unique_ptrINS2_4nodeESt14default_deleteIS6_EEEEC2EPSt18_Rb_tree_node_base(ptr noundef nonnull align 8 dereferenceable(8) %0, ptr noundef %1) unnamed_addr #2 comdat align 2 {
  %3 = alloca ptr, align 8
  %4 = alloca ptr, align 8
  store ptr %0, ptr %3, align 8, !tbaa !268
  store ptr %1, ptr %4, align 8, !tbaa !238
  %5 = load ptr, ptr %3, align 8
  %6 = getelementptr inbounds nuw %"struct.std::_Rb_tree_iterator", ptr %5, i32 0, i32 0
  %7 = load ptr, ptr %4, align 8, !tbaa !238
  store ptr %7, ptr %6, align 8, !tbaa !270
  ret void
}

; Function Attrs: mustprogress nounwind uwtable
define linkonce_odr ptr @_ZNKSt23_Rb_tree_const_iteratorISt4pairIKN4toml2v33keyESt10unique_ptrINS2_4nodeESt14default_deleteIS6_EEEE13_M_const_castEv(ptr noundef nonnull align 8 dereferenceable(8) %0) #2 comdat align 2 {
  %2 = alloca %"struct.std::_Rb_tree_iterator", align 8
  %3 = alloca ptr, align 8
  store ptr %0, ptr %3, align 8, !tbaa !264
  %4 = load ptr, ptr %3, align 8
  %5 = getelementptr inbounds nuw %"struct.std::_Rb_tree_const_iterator", ptr %4, i32 0, i32 0
  %6 = load ptr, ptr %5, align 8, !tbaa !266
  call void @_ZNSt17_Rb_tree_iteratorISt4pairIKN4toml2v33keyESt10unique_ptrINS2_4nodeESt14default_deleteIS6_EEEEC2EPSt18_Rb_tree_node_base(ptr noundef nonnull align 8 dereferenceable(8) %2, ptr noundef %6) #36
  %7 = getelementptr inbounds nuw %"struct.std::_Rb_tree_iterator", ptr %2, i32 0, i32 0
  %8 = load ptr, ptr %7, align 8
  ret ptr %8
}

; Function Attrs: mustprogress nounwind uwtable
define linkonce_odr void @_ZNSt8_Rb_treeIN4toml2v33keyESt4pairIKS2_St10unique_ptrINS1_4nodeESt14default_deleteIS6_EEESt10_Select1stISA_ESt4lessIvESaISA_EE12_M_erase_auxESt23_Rb_tree_const_iteratorISA_E(ptr noundef nonnull align 8 dereferenceable(48) %0, ptr %1) #2 comdat align 2 {
  %3 = alloca %"struct.std::_Rb_tree_const_iterator", align 8
  %4 = alloca ptr, align 8
  %5 = alloca ptr, align 8
  %6 = getelementptr inbounds nuw %"struct.std::_Rb_tree_const_iterator", ptr %3, i32 0, i32 0
  store ptr %1, ptr %6, align 8
  store ptr %0, ptr %4, align 8, !tbaa !525
  %7 = load ptr, ptr %4, align 8
  call void @llvm.lifetime.start.p0(i64 8, ptr %5) #36
  %8 = getelementptr inbounds nuw %"struct.std::_Rb_tree_const_iterator", ptr %3, i32 0, i32 0
  %9 = load ptr, ptr %8, align 8, !tbaa !266
  %10 = getelementptr inbounds nuw %"class.std::_Rb_tree", ptr %7, i32 0, i32 0
  %11 = getelementptr inbounds i8, ptr %10, i64 8
  %12 = getelementptr inbounds nuw %"struct.std::_Rb_tree_header", ptr %11, i32 0, i32 0
  %13 = call noundef nonnull ptr @_ZSt28_Rb_tree_rebalance_for_erasePSt18_Rb_tree_node_baseRS_(ptr noundef %9, ptr noundef nonnull align 8 dereferenceable(32) %12) #36
  store ptr %13, ptr %5, align 8, !tbaa !542
  %14 = load ptr, ptr %5, align 8, !tbaa !542
  call void @_ZNSt8_Rb_treeIN4toml2v33keyESt4pairIKS2_St10unique_ptrINS1_4nodeESt14default_deleteIS6_EEESt10_Select1stISA_ESt4lessIvESaISA_EE12_M_drop_nodeEPSt13_Rb_tree_nodeISA_E(ptr noundef nonnull align 8 dereferenceable(48) %7, ptr noundef %14) #36
  %15 = getelementptr inbounds nuw %"class.std::_Rb_tree", ptr %7, i32 0, i32 0
  %16 = getelementptr inbounds i8, ptr %15, i64 8
  %17 = getelementptr inbounds nuw %"struct.std::_Rb_tree_header", ptr %16, i32 0, i32 1
  %18 = load i64, ptr %17, align 8, !tbaa !541
  %19 = add i64 %18, -1
  store i64 %19, ptr %17, align 8, !tbaa !541
  call void @llvm.lifetime.end.p0(i64 8, ptr %5) #36
  ret void
}

; Function Attrs: mustprogress nounwind uwtable
define linkonce_odr noundef nonnull align 8 dereferenceable(8) ptr @_ZNSt23_Rb_tree_const_iteratorISt4pairIKN4toml2v33keyESt10unique_ptrINS2_4nodeESt14default_deleteIS6_EEEEppEv(ptr noundef nonnull align 8 dereferenceable(8) %0) #2 comdat align 2 {
  %2 = alloca ptr, align 8
  store ptr %0, ptr %2, align 8, !tbaa !264
  %3 = load ptr, ptr %2, align 8
  %4 = getelementptr inbounds nuw %"struct.std::_Rb_tree_const_iterator", ptr %3, i32 0, i32 0
  %5 = load ptr, ptr %4, align 8, !tbaa !266
  %6 = call noundef ptr @_ZSt18_Rb_tree_incrementPKSt18_Rb_tree_node_base(ptr noundef %5) #37
  %7 = getelementptr inbounds nuw %"struct.std::_Rb_tree_const_iterator", ptr %3, i32 0, i32 0
  store ptr %6, ptr %7, align 8, !tbaa !266
  ret ptr %3
}

; Function Attrs: mustprogress uwtable
define linkonce_odr ptr @_ZNSt8_Rb_treeIN4toml2v33keyESt4pairIKS2_St10unique_ptrINS1_4nodeESt14default_deleteIS6_EEESt10_Select1stISA_ESt4lessIvESaISA_EE5eraseB5cxx11ESt23_Rb_tree_const_iteratorISA_E(ptr noundef nonnull align 8 dereferenceable(48) %0, ptr %1) #0 comdat align 2 {
  %3 = alloca %"struct.std::_Rb_tree_iterator", align 8
  %4 = alloca %"struct.std::_Rb_tree_const_iterator", align 8
  %5 = alloca ptr, align 8
  %6 = alloca %"struct.std::_Rb_tree_const_iterator", align 8
  %7 = alloca %"struct.std::_Rb_tree_const_iterator", align 8
  %8 = getelementptr inbounds nuw %"struct.std::_Rb_tree_const_iterator", ptr %4, i32 0, i32 0
  store ptr %1, ptr %8, align 8
  store ptr %0, ptr %5, align 8, !tbaa !525
  %9 = load ptr, ptr %5, align 8
  br label %10

10:                                               ; preds = %2
  br label %11

11:                                               ; preds = %10
  call void @llvm.lifetime.start.p0(i64 8, ptr %6) #36
  call void @llvm.memcpy.p0.p0.i64(ptr align 8 %6, ptr align 8 %4, i64 8, i1 false), !tbaa.struct !237
  %12 = call noundef nonnull align 8 dereferenceable(8) ptr @_ZNSt23_Rb_tree_const_iteratorISt4pairIKN4toml2v33keyESt10unique_ptrINS2_4nodeESt14default_deleteIS6_EEEEppEv(ptr noundef nonnull align 8 dereferenceable(8) %6) #36
  call void @llvm.memcpy.p0.p0.i64(ptr align 8 %7, ptr align 8 %4, i64 8, i1 false), !tbaa.struct !237
  %13 = getelementptr inbounds nuw %"struct.std::_Rb_tree_const_iterator", ptr %7, i32 0, i32 0
  %14 = load ptr, ptr %13, align 8
  call void @_ZNSt8_Rb_treeIN4toml2v33keyESt4pairIKS2_St10unique_ptrINS1_4nodeESt14default_deleteIS6_EEESt10_Select1stISA_ESt4lessIvESaISA_EE12_M_erase_auxESt23_Rb_tree_const_iteratorISA_E(ptr noundef nonnull align 8 dereferenceable(48) %9, ptr %14)
  %15 = call ptr @_ZNKSt23_Rb_tree_const_iteratorISt4pairIKN4toml2v33keyESt10unique_ptrINS2_4nodeESt14default_deleteIS6_EEEE13_M_const_castEv(ptr noundef nonnull align 8 dereferenceable(8) %6) #36
  %16 = getelementptr inbounds nuw %"struct.std::_Rb_tree_iterator", ptr %3, i32 0, i32 0
  store ptr %15, ptr %16, align 8
  call void @llvm.lifetime.end.p0(i64 8, ptr %6) #36
  %17 = getelementptr inbounds nuw %"struct.std::_Rb_tree_iterator", ptr %3, i32 0, i32 0
  %18 = load ptr, ptr %17, align 8
  ret ptr %18
}

; Function Attrs: noinline noreturn nounwind uwtable
define linkonce_odr hidden void @__clang_call_terminate(ptr noundef %0) #11 comdat {
  %2 = call ptr @__cxa_begin_catch(ptr %0) #36
  call void @_ZSt9terminatev() #39
  unreachable
}

; Function Attrs: mustprogress uwtable
define linkonce_odr ptr @_ZNSt3mapIN4toml2v33keyESt10unique_ptrINS1_4nodeESt14default_deleteIS4_EESt4lessIvESaISt4pairIKS2_S7_EEE5eraseESt23_Rb_tree_const_iteratorISC_E(ptr noundef nonnull align 8 dereferenceable(48) %0, ptr %1) #0 comdat align 2 {
  %3 = alloca %"struct.std::_Rb_tree_iterator", align 8
  %4 = alloca %"struct.std::_Rb_tree_const_iterator", align 8
  %5 = alloca ptr, align 8
  %6 = alloca %"struct.std::_Rb_tree_const_iterator", align 8
  %7 = getelementptr inbounds nuw %"struct.std::_Rb_tree_const_iterator", ptr %4, i32 0, i32 0
  store ptr %1, ptr %7, align 8
  store ptr %0, ptr %5, align 8, !tbaa !255
  %8 = load ptr, ptr %5, align 8
  %9 = getelementptr inbounds nuw %"class.std::map", ptr %8, i32 0, i32 0
  call void @llvm.memcpy.p0.p0.i64(ptr align 8 %6, ptr align 8 %4, i64 8, i1 false), !tbaa.struct !237
  %10 = getelementptr inbounds nuw %"struct.std::_Rb_tree_const_iterator", ptr %6, i32 0, i32 0
  %11 = load ptr, ptr %10, align 8
  %12 = call ptr @_ZNSt8_Rb_treeIN4toml2v33keyESt4pairIKS2_St10unique_ptrINS1_4nodeESt14default_deleteIS6_EEESt10_Select1stISA_ESt4lessIvESaISA_EE5eraseB5cxx11ESt23_Rb_tree_const_iteratorISA_E(ptr noundef nonnull align 8 dereferenceable(48) %9, ptr %11)
  %13 = getelementptr inbounds nuw %"struct.std::_Rb_tree_iterator", ptr %3, i32 0, i32 0
  store ptr %12, ptr %13, align 8
  %14 = getelementptr inbounds nuw %"struct.std::_Rb_tree_iterator", ptr %3, i32 0, i32 0
  %15 = load ptr, ptr %14, align 8
  ret ptr %15
}

; Function Attrs: mustprogress nounwind uwtable
define ptr @_ZN4toml2v35table5eraseESt23_Rb_tree_const_iteratorISt4pairIKNS0_3keyESt10unique_ptrINS0_4nodeESt14default_deleteIS7_EEEE(ptr noundef nonnull align 8 dereferenceable(89) %0, ptr %1) #2 align 2 personality ptr @__gxx_personality_v0 {
  %3 = alloca %"struct.std::_Rb_tree_iterator", align 8
  %4 = alloca %"struct.std::_Rb_tree_const_iterator", align 8
  %5 = alloca ptr, align 8
  %6 = alloca %"struct.std::_Rb_tree_const_iterator", align 8
  %7 = getelementptr inbounds nuw %"struct.std::_Rb_tree_const_iterator", ptr %4, i32 0, i32 0
  store ptr %1, ptr %7, align 8
  store ptr %0, ptr %5, align 8, !tbaa !132
  %8 = load ptr, ptr %5, align 8
  %9 = getelementptr inbounds nuw %"class.toml::v3::table", ptr %8, i32 0, i32 1
  call void @llvm.memcpy.p0.p0.i64(ptr align 8 %6, ptr align 8 %4, i64 8, i1 false), !tbaa.struct !237
  %10 = getelementptr inbounds nuw %"struct.std::_Rb_tree_const_iterator", ptr %6, i32 0, i32 0
  %11 = load ptr, ptr %10, align 8
  %12 = invoke ptr @_ZNSt3mapIN4toml2v33keyESt10unique_ptrINS1_4nodeESt14default_deleteIS4_EESt4lessIvESaISt4pairIKS2_S7_EEE5eraseESt23_Rb_tree_const_iteratorISC_E(ptr noundef nonnull align 8 dereferenceable(48) %9, ptr %11)
          to label %13 unwind label %17

13:                                               ; preds = %2
  %14 = getelementptr inbounds nuw %"struct.std::_Rb_tree_iterator", ptr %3, i32 0, i32 0
  store ptr %12, ptr %14, align 8
  %15 = getelementptr inbounds nuw %"struct.std::_Rb_tree_iterator", ptr %3, i32 0, i32 0
  %16 = load ptr, ptr %15, align 8
  ret ptr %16

17:                                               ; preds = %2
  %18 = landingpad { ptr, i32 }
          catch ptr null
  %19 = extractvalue { ptr, i32 } %18, 0
  call void @__clang_call_terminate(ptr %19) #39
  unreachable
}