; Function Attrs: mustprogress nounwind uwtable
define noundef ptr @_ZN4toml2v35table5eraseESt23_Rb_tree_const_iteratorISt4pairIKNS0_3keyESt10unique_ptrINS0_4nodeESt14default_deleteIS7_EEEE(ptr noundef nonnull align 8 dereferenceable(89) %0, ptr %1) local_unnamed_addr #8 align 2 personality ptr @__gxx_personality_v0 {
  %3 = getelementptr inbounds nuw i8, ptr %0, i64 40
  %4 = tail call noundef ptr @_ZSt18_Rb_tree_incrementPKSt18_Rb_tree_node_base(ptr noundef %1) #52
  %5 = getelementptr inbounds nuw i8, ptr %0, i64 48
  %6 = tail call noundef nonnull ptr @_ZSt28_Rb_tree_rebalance_for_erasePSt18_Rb_tree_node_baseRS_(ptr noundef %1, ptr noundef nonnull align 8 dereferenceable(32) %5) #50
  tail call void @_ZNSt8_Rb_treeIN4toml2v33keyESt4pairIKS2_St10unique_ptrINS1_4nodeESt14default_deleteIS6_EEESt10_Select1stISA_ESt4lessIvESaISA_EE12_M_drop_nodeEPSt13_Rb_tree_nodeISA_E(ptr noundef nonnull align 8 dereferenceable(48) %3, ptr noundef nonnull %6) #50
  %7 = getelementptr inbounds nuw i8, ptr %0, i64 80
  %8 = load i64, ptr %7, align 8, !tbaa !160
  %9 = add i64 %8, -1
  store i64 %9, ptr %7, align 8, !tbaa !160
  ret ptr %4
}